; Function Attrs: mustprogress uwtable
define noalias nonnull ptr @lean_alloc_object(i64 noundef %0) local_unnamed_addr #0 {
  %2 = tail call noalias ptr @mi_malloc(i64 noundef %0) #40
  %3 = icmp eq ptr %2, null
  br i1 %3, label %4, label %5

4:                                                ; preds = %1
  tail call void @lean_internal_panic_out_of_memory() #43
  unreachable

5:                                                ; preds = %1
  %6 = getelementptr inbounds nuw i8, ptr %2, i64 4
  %7 = load i32, ptr %6, align 4
  %8 = and i32 %7, -65536
  store i32 %8, ptr %6, align 4
  ret ptr %2
}